target datalayout = "e-m:e-p270:32:32-p271:32:32-p272:64:64-i64:64-i128:128-f80:128-n8:16:32:64-S128"
target triple = "x86_64-pc-linux-gnu"

@.str.5 = private unnamed_addr constant [2 x i8] c"\0A\00", align 1
@.str.6 = private unnamed_addr constant [31 x i8] c"    jny [options] [selection]\0A\00", align 1
@.str.7 = private unnamed_addr constant [52 x i8] c"Write JSON netlist metadata for the current design\0A\00", align 1
@.str.8 = private unnamed_addr constant [21 x i8] c"    -no-connections\0A\00", align 1
@.str.9 = private unnamed_addr constant [69 x i8] c"        Don't include connection information in the netlist output.\0A\00", align 1
@.str.10 = private unnamed_addr constant [20 x i8] c"    -no-attributes\0A\00", align 1
@.str.11 = private unnamed_addr constant [69 x i8] c"        Don't include attributed information in the netlist output.\0A\00", align 1
@.str.12 = private unnamed_addr constant [20 x i8] c"    -no-properties\0A\00", align 1
@.str.13 = private unnamed_addr constant [67 x i8] c"        Don't include property information in the netlist output.\0A\00", align 1
@.str.101 = private unnamed_addr constant [19 x i8] c"    -o <filename>\0A\00", align 1
@.str.102 = private unnamed_addr constant [38 x i8] c"        write to the specified file.\0A\00", align 1
@.str.103 = private unnamed_addr constant [65 x i8] c"See 'help write_jny' for a description of the JSON format used.\0A\00", align 1

; Function Attrs: mustprogress uwtable
define internal void @_ZN12_GLOBAL__N_17JnyPass4helpEv(ptr noundef nonnull align 8 dereferenceable(104) %0) unnamed_addr #4 align 2 {
  %2 = alloca ptr, align 8
  store ptr %0, ptr %2, align 8, !tbaa !13
  call void (ptr, ...) @_ZN5Yosys3logEPKcz(ptr noundef @.str.5)
  call void (ptr, ...) @_ZN5Yosys3logEPKcz(ptr noundef @.str.6)
  call void (ptr, ...) @_ZN5Yosys3logEPKcz(ptr noundef @.str.5)
  call void (ptr, ...) @_ZN5Yosys3logEPKcz(ptr noundef @.str.7)
  call void (ptr, ...) @_ZN5Yosys3logEPKcz(ptr noundef @.str.5)
  call void (ptr, ...) @_ZN5Yosys3logEPKcz(ptr noundef @.str.101)
  call void (ptr, ...) @_ZN5Yosys3logEPKcz(ptr noundef @.str.102)
  call void (ptr, ...) @_ZN5Yosys3logEPKcz(ptr noundef @.str.5)
  call void (ptr, ...) @_ZN5Yosys3logEPKcz(ptr noundef @.str.8)
  call void (ptr, ...) @_ZN5Yosys3logEPKcz(ptr noundef @.str.9)
  call void (ptr, ...) @_ZN5Yosys3logEPKcz(ptr noundef @.str.5)
  call void (ptr, ...) @_ZN5Yosys3logEPKcz(ptr noundef @.str.10)
  call void (ptr, ...) @_ZN5Yosys3logEPKcz(ptr noundef @.str.11)
  call void (ptr, ...) @_ZN5Yosys3logEPKcz(ptr noundef @.str.5)
  call void (ptr, ...) @_ZN5Yosys3logEPKcz(ptr noundef @.str.12)
  call void (ptr, ...) @_ZN5Yosys3logEPKcz(ptr noundef @.str.13)
  call void (ptr, ...) @_ZN5Yosys3logEPKcz(ptr noundef @.str.5)
  call void (ptr, ...) @_ZN5Yosys3logEPKcz(ptr noundef @.str.103)
  call void (ptr, ...) @_ZN5Yosys3logEPKcz(ptr noundef @.str.5)
  ret void
}